target datalayout = "e-m:e-p270:32:32-p271:32:32-p272:64:64-i64:64-i128:128-f80:128-n8:16:32:64-S128"
target triple = "x86_64-pc-linux-gnu"

%"struct.cv::utils::trace::details::Region::LocationStaticStorage" = type { ptr, ptr, ptr, i32, i32 }
%"class.cv::Moments" = type { double, double, double, double, double, double, double, double, double, double, double, double, double, double, double, double, double, double, double, double, double, double, double, double }
%"class.cv::utils::trace::details::Region" = type <{ ptr, i32, [4 x i8] }>

@_ZZN2cv9HuMomentsERKNS_7MomentsEPdE25__cv_trace_location_fn711 = internal constant %"struct.cv::utils::trace::details::Region::LocationStaticStorage" { ptr @_ZZN2cv9HuMomentsERKNS_7MomentsEPdE31__cv_trace_location_extra_fn711, ptr @.str.4, ptr @.str.1, i32 711, i32 1 }, align 8

; Function Attrs: mustprogress nounwind uwtable
define linkonce_odr hidden void @_ZN2cv5utils5trace7details6RegionD2Ev(ptr noundef nonnull align 8 dereferenceable(12) %0) unnamed_addr #0 comdat align 2 personality ptr @__gxx_personality_v0 {
  %2 = alloca ptr, align 8
  store ptr %0, ptr %2, align 8
  %3 = load ptr, ptr %2, align 8
  %4 = getelementptr inbounds %"class.cv::utils::trace::details::Region", ptr %3, i32 0, i32 1
  %5 = load i32, ptr %4, align 8
  %6 = icmp ne i32 %5, 0
  br i1 %6, label %7, label %9

7:                                                ; preds = %1
  invoke void @_ZN2cv5utils5trace7details6Region7destroyEv(ptr noundef nonnull align 8 dereferenceable(12) %3)
          to label %8 unwind label %10

8:                                                ; preds = %7
  br label %9

9:                                                ; preds = %8, %1
  ret void

10:                                               ; preds = %7
  %11 = landingpad { ptr, i32 }
          catch ptr null
  %12 = extractvalue { ptr, i32 } %11, 0
  call void @__clang_call_terminate(ptr %12) #11
  unreachable
}

; Function Attrs: mustprogress uwtable
define void @_ZN2cv9HuMomentsERKNS_7MomentsEPd(ptr noundef nonnull align 8 dereferenceable(192) %0, ptr noundef %1) #1 {
  %3 = alloca ptr, align 8
  %4 = alloca ptr, align 8
  %5 = alloca %"class.cv::utils::trace::details::Region", align 8
  %6 = alloca double, align 8
  %7 = alloca double, align 8
  %8 = alloca double, align 8
  %9 = alloca double, align 8
  %10 = alloca double, align 8
  %11 = alloca double, align 8
  %12 = alloca double, align 8
  store ptr %0, ptr %3, align 8
  store ptr %1, ptr %4, align 8
  call void @_ZN2cv5utils5trace7details6RegionC1ERKNS3_21LocationStaticStorageE(ptr noundef nonnull align 8 dereferenceable(12) %5, ptr noundef nonnull align 8 dereferenceable(32) @_ZZN2cv9HuMomentsERKNS_7MomentsEPdE25__cv_trace_location_fn711)
  %13 = load ptr, ptr %3, align 8
  %14 = getelementptr inbounds %"class.cv::Moments", ptr %13, i32 0, i32 20
  %15 = load double, ptr %14, align 8
  %16 = load ptr, ptr %3, align 8
  %17 = getelementptr inbounds %"class.cv::Moments", ptr %16, i32 0, i32 22
  %18 = load double, ptr %17, align 8
  %19 = fadd double %15, %18
  store double %19, ptr %6, align 8
  %20 = load ptr, ptr %3, align 8
  %21 = getelementptr inbounds %"class.cv::Moments", ptr %20, i32 0, i32 21
  %22 = load double, ptr %21, align 8
  %23 = load ptr, ptr %3, align 8
  %24 = getelementptr inbounds %"class.cv::Moments", ptr %23, i32 0, i32 23
  %25 = load double, ptr %24, align 8
  %26 = fadd double %22, %25
  store double %26, ptr %7, align 8
  %27 = load double, ptr %6, align 8
  %28 = load double, ptr %6, align 8
  %29 = fmul double %27, %28
  store double %29, ptr %8, align 8
  %30 = load double, ptr %7, align 8
  %31 = load double, ptr %7, align 8
  %32 = fmul double %30, %31
  store double %32, ptr %9, align 8
  %33 = load ptr, ptr %3, align 8
  %34 = getelementptr inbounds %"class.cv::Moments", ptr %33, i32 0, i32 18
  %35 = load double, ptr %34, align 8
  %36 = fmul double 4.000000e+00, %35
  store double %36, ptr %10, align 8
  %37 = load ptr, ptr %3, align 8
  %38 = getelementptr inbounds %"class.cv::Moments", ptr %37, i32 0, i32 17
  %39 = load double, ptr %38, align 8
  %40 = load ptr, ptr %3, align 8
  %41 = getelementptr inbounds %"class.cv::Moments", ptr %40, i32 0, i32 19
  %42 = load double, ptr %41, align 8
  %43 = fadd double %39, %42
  store double %43, ptr %11, align 8
  %44 = load ptr, ptr %3, align 8
  %45 = getelementptr inbounds %"class.cv::Moments", ptr %44, i32 0, i32 17
  %46 = load double, ptr %45, align 8
  %47 = load ptr, ptr %3, align 8
  %48 = getelementptr inbounds %"class.cv::Moments", ptr %47, i32 0, i32 19
  %49 = load double, ptr %48, align 8
  %50 = fsub double %46, %49
  store double %50, ptr %12, align 8
  %51 = load double, ptr %11, align 8
  %52 = load ptr, ptr %4, align 8
  %53 = getelementptr inbounds double, ptr %52, i64 0
  store double %51, ptr %53, align 8
  %54 = load double, ptr %12, align 8
  %55 = load double, ptr %12, align 8
  %56 = load double, ptr %10, align 8
  %57 = load ptr, ptr %3, align 8
  %58 = getelementptr inbounds %"class.cv::Moments", ptr %57, i32 0, i32 18
  %59 = load double, ptr %58, align 8
  %60 = fmul double %56, %59
  %61 = call double @llvm.fmuladd.f64(double %54, double %55, double %60)
  %62 = load ptr, ptr %4, align 8
  %63 = getelementptr inbounds double, ptr %62, i64 1
  store double %61, ptr %63, align 8
  %64 = load double, ptr %8, align 8
  %65 = load double, ptr %9, align 8
  %66 = fadd double %64, %65
  %67 = load ptr, ptr %4, align 8
  %68 = getelementptr inbounds double, ptr %67, i64 3
  store double %66, ptr %68, align 8
  %69 = load double, ptr %12, align 8
  %70 = load double, ptr %8, align 8
  %71 = load double, ptr %9, align 8
  %72 = fsub double %70, %71
  %73 = load double, ptr %10, align 8
  %74 = load double, ptr %6, align 8
  %75 = fmul double %73, %74
  %76 = load double, ptr %7, align 8
  %77 = fmul double %75, %76
  %78 = call double @llvm.fmuladd.f64(double %69, double %72, double %77)
  %79 = load ptr, ptr %4, align 8
  %80 = getelementptr inbounds double, ptr %79, i64 5
  store double %78, ptr %80, align 8
  %81 = load double, ptr %8, align 8
  %82 = load double, ptr %9, align 8
  %83 = call double @llvm.fmuladd.f64(double -3.000000e+00, double %82, double %81)
  %84 = load double, ptr %6, align 8
  %85 = fmul double %84, %83
  store double %85, ptr %6, align 8
  %86 = load double, ptr %8, align 8
  %87 = load double, ptr %9, align 8
  %88 = fneg double %87
  %89 = call double @llvm.fmuladd.f64(double 3.000000e+00, double %86, double %88)
  %90 = load double, ptr %7, align 8
  %91 = fmul double %90, %89
  store double %91, ptr %7, align 8
  %92 = load ptr, ptr %3, align 8
  %93 = getelementptr inbounds %"class.cv::Moments", ptr %92, i32 0, i32 20
  %94 = load double, ptr %93, align 8
  %95 = load ptr, ptr %3, align 8
  %96 = getelementptr inbounds %"class.cv::Moments", ptr %95, i32 0, i32 22
  %97 = load double, ptr %96, align 8
  %98 = call double @llvm.fmuladd.f64(double -3.000000e+00, double %97, double %94)
  store double %98, ptr %8, align 8
  %99 = load ptr, ptr %3, align 8
  %100 = getelementptr inbounds %"class.cv::Moments", ptr %99, i32 0, i32 21
  %101 = load double, ptr %100, align 8
  %102 = load ptr, ptr %3, align 8
  %103 = getelementptr inbounds %"class.cv::Moments", ptr %102, i32 0, i32 23
  %104 = load double, ptr %103, align 8
  %105 = fneg double %104
  %106 = call double @llvm.fmuladd.f64(double 3.000000e+00, double %101, double %105)
  store double %106, ptr %9, align 8
  %107 = load double, ptr %8, align 8
  %108 = load double, ptr %8, align 8
  %109 = load double, ptr %9, align 8
  %110 = load double, ptr %9, align 8
  %111 = fmul double %109, %110
  %112 = call double @llvm.fmuladd.f64(double %107, double %108, double %111)
  %113 = load ptr, ptr %4, align 8
  %114 = getelementptr inbounds double, ptr %113, i64 2
  store double %112, ptr %114, align 8
  %115 = load double, ptr %8, align 8
  %116 = load double, ptr %6, align 8
  %117 = load double, ptr %9, align 8
  %118 = load double, ptr %7, align 8
  %119 = fmul double %117, %118
  %120 = call double @llvm.fmuladd.f64(double %115, double %116, double %119)
  %121 = load ptr, ptr %4, align 8
  %122 = getelementptr inbounds double, ptr %121, i64 4
  store double %120, ptr %122, align 8
  %123 = load double, ptr %9, align 8
  %124 = load double, ptr %6, align 8
  %125 = load double, ptr %8, align 8
  %126 = load double, ptr %7, align 8
  %127 = fmul double %125, %126
  %128 = fneg double %127
  %129 = call double @llvm.fmuladd.f64(double %123, double %124, double %128)
  %130 = load ptr, ptr %4, align 8
  %131 = getelementptr inbounds double, ptr %130, i64 6
  store double %129, ptr %131, align 8
  call void @_ZN2cv5utils5trace7details6RegionD2Ev(ptr noundef nonnull align 8 dereferenceable(12) %5) #9
  ret void
}