; Function Attrs: mustprogress uwtable
define void @_ZN2cv9HuMomentsERKNS_7MomentsEPd(ptr nocapture noundef nonnull readonly align 8 dereferenceable(192) %0, ptr nocapture noundef writeonly %1) local_unnamed_addr #2 personality ptr @__gxx_personality_v0 {
  %3 = alloca %"class.cv::utils::trace::details::Region", align 8
  call void @_ZN2cv5utils5trace7details6RegionC1ERKNS3_21LocationStaticStorageE(ptr noundef nonnull align 8 dereferenceable(12) %3, ptr noundef nonnull align 8 dereferenceable(32) @_ZZN2cv9HuMomentsERKNS_7MomentsEPdE25__cv_trace_location_fn711)
  %4 = getelementptr inbounds i8, ptr %0, i64 160
  %5 = load double, ptr %4, align 8
  %6 = getelementptr inbounds i8, ptr %0, i64 176
  %7 = load double, ptr %6, align 8
  %8 = fadd double %5, %7
  %9 = getelementptr inbounds i8, ptr %0, i64 168
  %10 = load double, ptr %9, align 8
  %11 = getelementptr inbounds i8, ptr %0, i64 184
  %12 = load double, ptr %11, align 8
  %13 = fadd double %10, %12
  %14 = fmul double %8, %8
  %15 = fmul double %13, %13
  %16 = getelementptr inbounds i8, ptr %0, i64 144
  %17 = load double, ptr %16, align 8
  %18 = fmul double %17, 4.000000e+00
  %19 = getelementptr inbounds i8, ptr %0, i64 136
  %20 = load double, ptr %19, align 8
  %21 = getelementptr inbounds i8, ptr %0, i64 152
  %22 = load double, ptr %21, align 8
  %23 = fadd double %20, %22
  %24 = fsub double %20, %22
  store double %23, ptr %1, align 8
  %25 = load double, ptr %16, align 8
  %26 = fmul double %18, %25
  %27 = call double @llvm.fmuladd.f64(double %24, double %24, double %26)
  %28 = getelementptr inbounds i8, ptr %1, i64 8
  store double %27, ptr %28, align 8
  %29 = fadd double %14, %15
  %30 = getelementptr inbounds i8, ptr %1, i64 24
  store double %29, ptr %30, align 8
  %31 = fsub double %14, %15
  %32 = fmul double %8, %18
  %33 = fmul double %13, %32
  %34 = call double @llvm.fmuladd.f64(double %24, double %31, double %33)
  %35 = getelementptr inbounds i8, ptr %1, i64 40
  store double %34, ptr %35, align 8
  %36 = call double @llvm.fmuladd.f64(double %15, double -3.000000e+00, double %14)
  %37 = fmul double %8, %36
  %38 = fneg double %15
  %39 = call double @llvm.fmuladd.f64(double %14, double 3.000000e+00, double %38)
  %40 = fmul double %13, %39
  %41 = load double, ptr %4, align 8
  %42 = load double, ptr %6, align 8
  %43 = call double @llvm.fmuladd.f64(double %42, double -3.000000e+00, double %41)
  %44 = load double, ptr %9, align 8
  %45 = load double, ptr %11, align 8
  %46 = fneg double %45
  %47 = call double @llvm.fmuladd.f64(double %44, double 3.000000e+00, double %46)
  %48 = fmul double %47, %47
  %49 = call double @llvm.fmuladd.f64(double %43, double %43, double %48)
  %50 = getelementptr inbounds i8, ptr %1, i64 16
  store double %49, ptr %50, align 8
  %51 = fmul double %40, %47
  %52 = call double @llvm.fmuladd.f64(double %43, double %37, double %51)
  %53 = getelementptr inbounds i8, ptr %1, i64 32
  store double %52, ptr %53, align 8
  %54 = fneg double %43
  %55 = fmul double %40, %54
  %56 = call double @llvm.fmuladd.f64(double %47, double %37, double %55)
  %57 = getelementptr inbounds i8, ptr %1, i64 48
  store double %56, ptr %57, align 8
  %58 = getelementptr inbounds i8, ptr %3, i64 8
  %59 = load i32, ptr %58, align 8
  %.not.i = icmp eq i32 %59, 0
  br i1 %.not.i, label %_ZN2cv5utils5trace7details6RegionD2Ev.exit, label %60

60:                                               ; preds = %2
  invoke void @_ZN2cv5utils5trace7details6Region7destroyEv(ptr noundef nonnull align 8 dereferenceable(12) %3)
          to label %_ZN2cv5utils5trace7details6RegionD2Ev.exit unwind label %61

61:                                               ; preds = %60
  %62 = landingpad { ptr, i32 }
          catch ptr null
  %63 = extractvalue { ptr, i32 } %62, 0
  call void @__clang_call_terminate(ptr %63) #14
  unreachable

_ZN2cv5utils5trace7details6RegionD2Ev.exit:       ; preds = %2, %60
  ret void
}